target datalayout = "e-m:e-p270:32:32-p271:32:32-p272:64:64-i64:64-i128:128-f80:128-n8:16:32:64-S128"
target triple = "x86_64-pc-linux-gnu"

%"struct.llvm::EVT" = type { %"class.llvm::MVT", ptr }
%"class.llvm::MVT" = type { i16 }
%"class.llvm::TypeSize" = type { %"class.llvm::details::FixedOrScalableQuantity.base", [7 x i8] }
%"class.llvm::details::FixedOrScalableQuantity.base" = type <{ i64, i8 }>
%"struct.llvm::Align" = type { i8 }
%"struct.llvm::MachinePointerInfo" = type <{ %"class.llvm::PointerUnion", i64, i32, i8, [3 x i8] }>
%"class.llvm::PointerUnion" = type { %"class.llvm::pointer_union_detail::PointerUnionMembers" }
%"class.llvm::pointer_union_detail::PointerUnionMembers" = type { %"class.llvm::pointer_union_detail::PointerUnionMembers.208" }
%"class.llvm::pointer_union_detail::PointerUnionMembers.208" = type { %"class.llvm::pointer_union_detail::PointerUnionMembers.209" }
%"class.llvm::pointer_union_detail::PointerUnionMembers.209" = type { %"class.llvm::PointerIntPair.210" }
%"class.llvm::PointerIntPair.210" = type { %"struct.llvm::detail::PunnedPointer.211" }
%"struct.llvm::detail::PunnedPointer.211" = type { [8 x i8] }
%"struct.llvm::AAMDNodes" = type { ptr, ptr, ptr, ptr }
%"class.llvm::details::FixedOrScalableQuantity" = type <{ i64, i8, [7 x i8] }>
%"class.llvm::MachineMemOperand" = type { %"struct.llvm::MachinePointerInfo", %"class.llvm::LLT", i16, %"struct.llvm::Align", %"struct.llvm::MachineMemOperand::MachineAtomicInfo", %"struct.llvm::AAMDNodes", ptr }
%"class.llvm::LLT" = type { i64 }
%"struct.llvm::MachineMemOperand::MachineAtomicInfo" = type { i16, [2 x i8] }

; Function Attrs: mustprogress nounwind uwtable
define linkonce_odr hidden { i64, i8 } @_ZNK4llvm3MVT13getSizeInBitsEv(ptr noundef nonnull align 2 dereferenceable(2) %0) #1 comdat align 2 {
  %2 = alloca %"class.llvm::TypeSize", align 8
  %3 = alloca ptr, align 8
  store ptr %0, ptr %3, align 8
  %4 = load ptr, ptr %3, align 8
  %5 = getelementptr inbounds nuw %"class.llvm::MVT", ptr %4, i32 0, i32 0
  %6 = load i16, ptr %5, align 2
  %7 = zext i16 %6 to i32
  switch i32 %7, label %14 [
    i32 0, label %8
    i32 1, label %9
    i32 510, label %10
    i32 506, label %11
    i32 509, label %11
    i32 508, label %11
    i32 507, label %11
    i32 511, label %11
    i32 504, label %12
    i32 505, label %13
  ]

8:                                                ; preds = %1
  unreachable

9:                                                ; preds = %1
  unreachable

10:                                               ; preds = %1
  unreachable

11:                                               ; preds = %1, %1, %1, %1, %1
  unreachable

12:                                               ; preds = %1
  unreachable

13:                                               ; preds = %1
  unreachable

14:                                               ; preds = %1
  %15 = getelementptr inbounds nuw %"class.llvm::MVT", ptr %4, i32 0, i32 0
  %16 = load i16, ptr %15, align 2
  %17 = zext i16 %16 to i32
  %18 = sub nsw i32 %17, 1
  %19 = sext i32 %18 to i64
  %20 = getelementptr inbounds [240 x %"class.llvm::TypeSize"], ptr @_ZZNK4llvm3MVT13getSizeInBitsEvE9SizeTable, i64 0, i64 %19
  call void @llvm.memcpy.p0.p0.i64(ptr align 8 %2, ptr align 16 %20, i64 16, i1 false)
  %21 = load { i64, i8 }, ptr %2, align 8
  ret { i64, i8 } %21
}

; Function Attrs: mustprogress nounwind uwtable
define linkonce_odr hidden noundef zeroext i1 @_ZNK4llvm3EVT8isSimpleEv(ptr noundef nonnull align 8 dereferenceable(16) %0) #1 comdat align 2 {
  %2 = alloca ptr, align 8
  store ptr %0, ptr %2, align 8
  %3 = load ptr, ptr %2, align 8
  %4 = getelementptr inbounds nuw %"struct.llvm::EVT", ptr %3, i32 0, i32 0
  %5 = getelementptr inbounds nuw %"class.llvm::MVT", ptr %4, i32 0, i32 0
  %6 = load i16, ptr %5, align 8
  %7 = zext i16 %6 to i32
  %8 = icmp ne i32 %7, 0
  ret i1 %8
}

; Function Attrs: mustprogress nounwind uwtable
define linkonce_odr hidden noundef zeroext i1 @_ZNK4llvm7details23FixedOrScalableQuantityINS_8TypeSizeEmE6isZeroEv(ptr noundef nonnull align 8 dereferenceable(9) %0) #1 comdat align 2 {
  %2 = alloca ptr, align 8
  store ptr %0, ptr %2, align 8
  %3 = load ptr, ptr %2, align 8
  %4 = getelementptr inbounds nuw %"class.llvm::details::FixedOrScalableQuantity", ptr %3, i32 0, i32 0
  %5 = load i64, ptr %4, align 8
  %6 = icmp eq i64 %5, 0
  ret i1 %6
}

; Function Attrs: mustprogress nounwind uwtable
define linkonce_odr hidden { i64, i8 } @_ZNK4llvm3EVT13getSizeInBitsEv(ptr noundef nonnull align 8 dereferenceable(16) %0) #1 comdat align 2 {
  %2 = alloca %"class.llvm::TypeSize", align 8
  %3 = alloca ptr, align 8
  %4 = alloca { i64, i8 }, align 8
  %5 = alloca { i64, i8 }, align 8
  store ptr %0, ptr %3, align 8
  %6 = load ptr, ptr %3, align 8
  %7 = call noundef zeroext i1 @_ZNK4llvm3EVT8isSimpleEv(ptr noundef nonnull align 8 dereferenceable(16) %6)
  br i1 %7, label %8, label %11

8:                                                ; preds = %1
  %9 = getelementptr inbounds nuw %"struct.llvm::EVT", ptr %6, i32 0, i32 0
  %10 = call { i64, i8 } @_ZNK4llvm3MVT13getSizeInBitsEv(ptr noundef nonnull align 2 dereferenceable(2) %9)
  store { i64, i8 } %10, ptr %4, align 8
  call void @llvm.memcpy.p0.p0.i64(ptr align 8 %2, ptr align 8 %4, i64 9, i1 false)
  br label %13

11:                                               ; preds = %1
  %12 = call { i64, i8 } @_ZNK4llvm3EVT21getExtendedSizeInBitsEv(ptr noundef nonnull align 8 dereferenceable(16) %6) #13
  store { i64, i8 } %12, ptr %5, align 8
  call void @llvm.memcpy.p0.p0.i64(ptr align 8 %2, ptr align 8 %5, i64 9, i1 false)
  br label %13

13:                                               ; preds = %11, %8
  %14 = load { i64, i8 }, ptr %2, align 8
  ret { i64, i8 } %14
}

; Function Attrs: mustprogress nounwind uwtable
define linkonce_odr hidden noundef zeroext i1 @_ZN4llvmgeENS_5AlignES0_(i8 %0, i8 %1) #1 comdat {
  %3 = alloca %"struct.llvm::Align", align 1
  %4 = alloca %"struct.llvm::Align", align 1
  %5 = getelementptr inbounds nuw %"struct.llvm::Align", ptr %3, i32 0, i32 0
  store i8 %0, ptr %5, align 1
  %6 = getelementptr inbounds nuw %"struct.llvm::Align", ptr %4, i32 0, i32 0
  store i8 %1, ptr %6, align 1
  %7 = getelementptr inbounds nuw %"struct.llvm::Align", ptr %3, i32 0, i32 0
  %8 = load i8, ptr %7, align 1
  %9 = zext i8 %8 to i32
  %10 = getelementptr inbounds nuw %"struct.llvm::Align", ptr %4, i32 0, i32 0
  %11 = load i8, ptr %10, align 1
  %12 = zext i8 %11 to i32
  %13 = icmp sge i32 %9, %12
  ret i1 %13
}

; Function Attrs: mustprogress nounwind uwtable
define linkonce_odr hidden noundef zeroext i1 @_ZNK4llvm3EVT11isZeroSizedEv(ptr noundef nonnull align 8 dereferenceable(16) %0) #1 comdat align 2 {
  %2 = alloca ptr, align 8
  %3 = alloca %"class.llvm::TypeSize", align 8
  %4 = alloca { i64, i8 }, align 8
  store ptr %0, ptr %2, align 8
  %5 = load ptr, ptr %2, align 8
  %6 = call { i64, i8 } @_ZNK4llvm3EVT13getSizeInBitsEv(ptr noundef nonnull align 8 dereferenceable(16) %5)
  store { i64, i8 } %6, ptr %4, align 8
  call void @llvm.memcpy.p0.p0.i64(ptr align 8 %3, ptr align 8 %4, i64 9, i1 false)
  %7 = call noundef zeroext i1 @_ZNK4llvm7details23FixedOrScalableQuantityINS_8TypeSizeEmE6isZeroEv(ptr noundef nonnull align 8 dereferenceable(9) %3)
  ret i1 %7
}

; Function Attrs: mustprogress nounwind uwtable
define dso_local noundef zeroext i1 @_ZNK4llvm18TargetLoweringBase30allowsMemoryAccessForAlignmentERNS_11LLVMContextERKNS_10DataLayoutENS_3EVTEjNS_5AlignENS_17MachineMemOperand5FlagsEPj(ptr noundef nonnull align 8 dereferenceable(408123) %0, ptr noundef nonnull align 8 dereferenceable(8) %1, ptr noundef nonnull align 8 dereferenceable(512) %2, i16 %3, ptr %4, i32 noundef %5, i8 %6, i16 noundef zeroext %7, ptr noundef %8) #1 align 2 {
  %10 = alloca i1, align 1
  %11 = alloca %"struct.llvm::EVT", align 8
  %12 = alloca %"struct.llvm::Align", align 1
  %13 = alloca ptr, align 8
  %14 = alloca ptr, align 8
  %15 = alloca ptr, align 8
  %16 = alloca i32, align 4
  %17 = alloca i16, align 2
  %18 = alloca ptr, align 8
  %19 = alloca ptr, align 8
  %20 = alloca %"struct.llvm::Align", align 1
  %21 = alloca %"struct.llvm::Align", align 1
  %22 = alloca %"struct.llvm::EVT", align 8
  %23 = alloca %"struct.llvm::Align", align 1
  %24 = getelementptr inbounds nuw { i16, ptr }, ptr %11, i32 0, i32 0
  store i16 %3, ptr %24, align 8
  %25 = getelementptr inbounds nuw { i16, ptr }, ptr %11, i32 0, i32 1
  store ptr %4, ptr %25, align 8
  %26 = getelementptr inbounds nuw %"struct.llvm::Align", ptr %12, i32 0, i32 0
  store i8 %6, ptr %26, align 1
  store ptr %0, ptr %13, align 8
  store ptr %1, ptr %14, align 8
  store ptr %2, ptr %15, align 8
  store i32 %5, ptr %16, align 4
  store i16 %7, ptr %17, align 2
  store ptr %8, ptr %18, align 8
  %27 = load ptr, ptr %13, align 8
  %28 = load ptr, ptr %14, align 8
  %29 = call noundef ptr @_ZNK4llvm3EVT13getTypeForEVTERNS_11LLVMContextE(ptr noundef nonnull align 8 dereferenceable(16) %11, ptr noundef nonnull align 8 dereferenceable(8) %28)
  store ptr %29, ptr %19, align 8
  %30 = call noundef zeroext i1 @_ZNK4llvm3EVT11isZeroSizedEv(ptr noundef nonnull align 8 dereferenceable(16) %11)
  br i1 %30, label %41, label %31

31:                                               ; preds = %9
  call void @llvm.memcpy.p0.p0.i64(ptr align 1 %20, ptr align 1 %12, i64 1, i1 false)
  %32 = load ptr, ptr %15, align 8
  %33 = load ptr, ptr %19, align 8
  %34 = call i8 @_ZNK4llvm10DataLayout15getABITypeAlignEPNS_4TypeE(ptr noundef nonnull align 8 dereferenceable(512) %32, ptr noundef %33)
  %35 = getelementptr inbounds nuw %"struct.llvm::Align", ptr %21, i32 0, i32 0
  store i8 %34, ptr %35, align 1
  %36 = getelementptr inbounds nuw %"struct.llvm::Align", ptr %20, i32 0, i32 0
  %37 = load i8, ptr %36, align 1
  %38 = getelementptr inbounds nuw %"struct.llvm::Align", ptr %21, i32 0, i32 0
  %39 = load i8, ptr %38, align 1
  %40 = call noundef zeroext i1 @_ZN4llvmgeENS_5AlignES0_(i8 %37, i8 %39)
  br i1 %40, label %41, label %47

41:                                               ; preds = %31, %9
  %42 = load ptr, ptr %18, align 8
  %43 = icmp ne ptr %42, null
  br i1 %43, label %44, label %46

44:                                               ; preds = %41
  %45 = load ptr, ptr %18, align 8
  store i32 1, ptr %45, align 4
  br label %46

46:                                               ; preds = %44, %41
  store i1 true, ptr %10, align 1
  br label %61

47:                                               ; preds = %31
  call void @llvm.memcpy.p0.p0.i64(ptr align 8 %22, ptr align 8 %11, i64 16, i1 false)
  %48 = load i32, ptr %16, align 4
  call void @llvm.memcpy.p0.p0.i64(ptr align 1 %23, ptr align 1 %12, i64 1, i1 false)
  %49 = load i16, ptr %17, align 2
  %50 = load ptr, ptr %18, align 8
  %51 = getelementptr inbounds nuw { i16, ptr }, ptr %22, i32 0, i32 0
  %52 = load i16, ptr %51, align 8
  %53 = getelementptr inbounds nuw { i16, ptr }, ptr %22, i32 0, i32 1
  %54 = load ptr, ptr %53, align 8
  %55 = getelementptr inbounds nuw %"struct.llvm::Align", ptr %23, i32 0, i32 0
  %56 = load i8, ptr %55, align 1
  %57 = load ptr, ptr %27, align 8
  %58 = getelementptr inbounds ptr, ptr %57, i64 100
  %59 = load ptr, ptr %58, align 8
  %60 = call noundef zeroext i1 %59(ptr noundef nonnull align 8 dereferenceable(408123) %27, i16 %52, ptr %54, i32 noundef %48, i8 %56, i16 noundef zeroext %49, ptr noundef %50)
  store i1 %60, ptr %10, align 1
  br label %61

61:                                               ; preds = %47, %46
  %62 = load i1, ptr %10, align 1
  ret i1 %62
}

; Function Attrs: mustprogress nounwind uwtable
define linkonce_odr hidden noundef zeroext i16 @_ZNK4llvm17MachineMemOperand8getFlagsEv(ptr noundef nonnull align 8 dereferenceable(80) %0) #1 comdat align 2 {
  %2 = alloca ptr, align 8
  store ptr %0, ptr %2, align 8
  %3 = load ptr, ptr %2, align 8
  %4 = getelementptr inbounds nuw %"class.llvm::MachineMemOperand", ptr %3, i32 0, i32 2
  %5 = load i16, ptr %4, align 8
  ret i16 %5
}

; Function Attrs: mustprogress nounwind uwtable
define linkonce_odr hidden noundef i32 @_ZNK4llvm17MachineMemOperand12getAddrSpaceEv(ptr noundef nonnull align 8 dereferenceable(80) %0) #1 comdat align 2 {
  %2 = alloca ptr, align 8
  store ptr %0, ptr %2, align 8
  %3 = load ptr, ptr %2, align 8
  %4 = getelementptr inbounds nuw %"class.llvm::MachineMemOperand", ptr %3, i32 0, i32 0
  %5 = call noundef i32 @_ZNK4llvm18MachinePointerInfo12getAddrSpaceEv(ptr noundef nonnull align 8 dereferenceable(21) %4)
  ret i32 %5
}

; Function Attrs: mustprogress nounwind uwtable
define dso_local noundef zeroext i1 @_ZNK4llvm18TargetLoweringBase30allowsMemoryAccessForAlignmentERNS_11LLVMContextERKNS_10DataLayoutENS_3EVTERKNS_17MachineMemOperandEPj(ptr noundef nonnull align 8 dereferenceable(408123) %0, ptr noundef nonnull align 8 dereferenceable(8) %1, ptr noundef nonnull align 8 dereferenceable(512) %2, i16 %3, ptr %4, ptr noundef nonnull align 8 dereferenceable(80) %5, ptr noundef %6) #1 align 2 {
  %8 = alloca %"struct.llvm::EVT", align 8
  %9 = alloca ptr, align 8
  %10 = alloca ptr, align 8
  %11 = alloca ptr, align 8
  %12 = alloca ptr, align 8
  %13 = alloca ptr, align 8
  %14 = alloca %"struct.llvm::EVT", align 8
  %15 = alloca %"struct.llvm::Align", align 1
  %16 = getelementptr inbounds nuw { i16, ptr }, ptr %8, i32 0, i32 0
  store i16 %3, ptr %16, align 8
  %17 = getelementptr inbounds nuw { i16, ptr }, ptr %8, i32 0, i32 1
  store ptr %4, ptr %17, align 8
  store ptr %0, ptr %9, align 8
  store ptr %1, ptr %10, align 8
  store ptr %2, ptr %11, align 8
  store ptr %5, ptr %12, align 8
  store ptr %6, ptr %13, align 8
  %18 = load ptr, ptr %9, align 8
  %19 = load ptr, ptr %10, align 8
  %20 = load ptr, ptr %11, align 8
  call void @llvm.memcpy.p0.p0.i64(ptr align 8 %14, ptr align 8 %8, i64 16, i1 false)
  %21 = load ptr, ptr %12, align 8
  %22 = call noundef i32 @_ZNK4llvm17MachineMemOperand12getAddrSpaceEv(ptr noundef nonnull align 8 dereferenceable(80) %21)
  %23 = load ptr, ptr %12, align 8
  %24 = call i8 @_ZNK4llvm17MachineMemOperand8getAlignEv(ptr noundef nonnull align 8 dereferenceable(80) %23)
  %25 = getelementptr inbounds nuw %"struct.llvm::Align", ptr %15, i32 0, i32 0
  store i8 %24, ptr %25, align 1
  %26 = load ptr, ptr %12, align 8
  %27 = call noundef zeroext i16 @_ZNK4llvm17MachineMemOperand8getFlagsEv(ptr noundef nonnull align 8 dereferenceable(80) %26)
  %28 = load ptr, ptr %13, align 8
  %29 = getelementptr inbounds nuw { i16, ptr }, ptr %14, i32 0, i32 0
  %30 = load i16, ptr %29, align 8
  %31 = getelementptr inbounds nuw { i16, ptr }, ptr %14, i32 0, i32 1
  %32 = load ptr, ptr %31, align 8
  %33 = getelementptr inbounds nuw %"struct.llvm::Align", ptr %15, i32 0, i32 0
  %34 = load i8, ptr %33, align 1
  %35 = call noundef zeroext i1 @_ZNK4llvm18TargetLoweringBase30allowsMemoryAccessForAlignmentERNS_11LLVMContextERKNS_10DataLayoutENS_3EVTEjNS_5AlignENS_17MachineMemOperand5FlagsEPj(ptr noundef nonnull align 8 dereferenceable(408123) %18, ptr noundef nonnull align 8 dereferenceable(8) %19, ptr noundef nonnull align 8 dereferenceable(512) %20, i16 %30, ptr %32, i32 noundef %22, i8 %34, i16 noundef zeroext %27, ptr noundef %28)
  ret i1 %35
}