; Function Attrs: mustprogress nounwind uwtable
define dso_local noundef zeroext i1 @_ZNK4llvm18TargetLoweringBase30allowsMemoryAccessForAlignmentERNS_11LLVMContextERKNS_10DataLayoutENS_3EVTERKNS_17MachineMemOperandEPj(ptr noundef nonnull align 8 dereferenceable(408123) %0, ptr noundef nonnull align 8 dereferenceable(8) %1, ptr noundef nonnull align 8 dereferenceable(512) %2, i16 %3, ptr %4, ptr noundef nonnull align 8 dereferenceable(80) %5, ptr noundef %6) local_unnamed_addr #0 align 2 {
  %8 = alloca %"struct.llvm::EVT", align 8
  %9 = tail call noundef i32 @_ZNK4llvm18MachinePointerInfo12getAddrSpaceEv(ptr noundef nonnull align 8 dereferenceable(21) %5) #26
  %10 = tail call i8 @_ZNK4llvm17MachineMemOperand8getAlignEv(ptr noundef nonnull align 8 dereferenceable(80) %5) #26
  %11 = getelementptr inbounds nuw i8, ptr %5, i64 32
  %12 = load i16, ptr %11, align 8
  call void @llvm.lifetime.start.p0(i64 16, ptr nonnull %8)
  store i16 %3, ptr %8, align 8
  %13 = getelementptr inbounds nuw i8, ptr %8, i64 8
  store ptr %4, ptr %13, align 8
  %14 = call noundef ptr @_ZNK4llvm3EVT13getTypeForEVTERNS_11LLVMContextE(ptr noundef nonnull align 8 dereferenceable(16) %8, ptr noundef nonnull align 8 dereferenceable(8) %1) #26
  %15 = load i16, ptr %8, align 8
  %.not.i.i.i = icmp eq i16 %15, 0
  br i1 %.not.i.i.i, label %20, label %16

16:                                               ; preds = %7
  %17 = zext i16 %15 to i64
  %18 = add nsw i64 %17, -1
  %19 = getelementptr inbounds [240 x %"class.llvm::TypeSize"], ptr @_ZZNK4llvm3MVT13getSizeInBitsEvE9SizeTable, i64 0, i64 %18
  %.sroa.0.0.copyload.i.i.i.i = load i64, ptr %19, align 16
  br label %_ZNK4llvm3EVT11isZeroSizedEv.exit.i

20:                                               ; preds = %7
  %21 = call { i64, i8 } @_ZNK4llvm3EVT21getExtendedSizeInBitsEv(ptr noundef nonnull align 8 dereferenceable(16) %8) #27
  %22 = extractvalue { i64, i8 } %21, 0
  br label %_ZNK4llvm3EVT11isZeroSizedEv.exit.i

_ZNK4llvm3EVT11isZeroSizedEv.exit.i:              ; preds = %20, %16
  %.pn.i.i.i = phi i64 [ %.sroa.0.0.copyload.i.i.i.i, %16 ], [ %22, %20 ]
  %23 = icmp eq i64 %.pn.i.i.i, 0
  br i1 %23, label %26, label %24

24:                                               ; preds = %_ZNK4llvm3EVT11isZeroSizedEv.exit.i
  %25 = call i8 @_ZNK4llvm10DataLayout15getABITypeAlignEPNS_4TypeE(ptr noundef nonnull align 8 dereferenceable(512) %2, ptr noundef %14) #26
  %.not16.i = icmp ult i8 %10, %25
  br i1 %.not16.i, label %28, label %26

26:                                               ; preds = %24, %_ZNK4llvm3EVT11isZeroSizedEv.exit.i
  %.not.i = icmp eq ptr %6, null
  br i1 %.not.i, label %_ZNK4llvm18TargetLoweringBase30allowsMemoryAccessForAlignmentERNS_11LLVMContextERKNS_10DataLayoutENS_3EVTEjNS_5AlignENS_17MachineMemOperand5FlagsEPj.exit, label %27

27:                                               ; preds = %26
  store i32 1, ptr %6, align 4
  br label %_ZNK4llvm18TargetLoweringBase30allowsMemoryAccessForAlignmentERNS_11LLVMContextERKNS_10DataLayoutENS_3EVTEjNS_5AlignENS_17MachineMemOperand5FlagsEPj.exit

28:                                               ; preds = %24
  %.sroa.01.0.copyload.i = load i16, ptr %8, align 8
  %.sroa.22.0.copyload.i = load ptr, ptr %13, align 8
  %29 = load ptr, ptr %0, align 8
  %30 = getelementptr inbounds i8, ptr %29, i64 800
  %31 = load ptr, ptr %30, align 8
  %32 = call noundef zeroext i1 %31(ptr noundef nonnull align 8 dereferenceable(408123) %0, i16 %.sroa.01.0.copyload.i, ptr %.sroa.22.0.copyload.i, i32 noundef %9, i8 %10, i16 noundef zeroext %12, ptr noundef %6) #26
  br label %_ZNK4llvm18TargetLoweringBase30allowsMemoryAccessForAlignmentERNS_11LLVMContextERKNS_10DataLayoutENS_3EVTEjNS_5AlignENS_17MachineMemOperand5FlagsEPj.exit

_ZNK4llvm18TargetLoweringBase30allowsMemoryAccessForAlignmentERNS_11LLVMContextERKNS_10DataLayoutENS_3EVTEjNS_5AlignENS_17MachineMemOperand5FlagsEPj.exit: ; preds = %26, %27, %28
  %.0.i = phi i1 [ %32, %28 ], [ true, %27 ], [ true, %26 ]
  call void @llvm.lifetime.end.p0(i64 16, ptr nonnull %8)
  ret i1 %.0.i
}